; Function Attrs: nounwind uwtable
define hidden void @zif_closelog(ptr noundef readonly captures(none) %0, ptr noundef writeonly captures(none) %1) local_unnamed_addr #1 {
  %3 = getelementptr inbounds nuw i8, ptr %0, i64 44
  %4 = load i32, ptr %3, align 4, !tbaa !34
  %.not = icmp eq i32 %4, 0
  br i1 %.not, label %6, label %5, !prof !36

5:                                                ; preds = %2
  tail call void @zend_wrong_parameters_none_error() #5
  br label %11

6:                                                ; preds = %2
  tail call void @php_closelog() #5
  %7 = load ptr, ptr getelementptr inbounds nuw (i8, ptr @basic_globals, i64 840), align 8, !tbaa !4
  %.not2 = icmp eq ptr %7, null
  br i1 %.not2, label %9, label %8

8:                                                ; preds = %6
  tail call void @free(ptr noundef nonnull %7) #5
  store ptr null, ptr getelementptr inbounds nuw (i8, ptr @basic_globals, i64 840), align 8, !tbaa !4
  br label %9

9:                                                ; preds = %8, %6
  %10 = getelementptr inbounds nuw i8, ptr %1, i64 8
  store i32 3, ptr %10, align 8, !tbaa !34
  br label %11

11:                                               ; preds = %9, %5
  ret void
}